; Function Attrs: mustprogress nofree norecurse nosync nounwind willreturn memory(readwrite, argmem: none, inaccessiblemem: none) uwtable
define void @b2World_SetJointTuning(i32 %0, float noundef %1, float noundef %2) local_unnamed_addr #12 {
  %4 = and i32 %0, 65535
  %5 = zext nneg i32 %4 to i64
  %6 = getelementptr %struct.b2World, ptr @b2_worlds, i64 %5
  %7 = getelementptr i8, ptr %6, i64 -9
  %8 = load i8, ptr %7, align 1, !tbaa !35, !range !77, !noundef !78
  %9 = trunc nuw i8 %8 to i1
  br i1 %9, label %21, label %10

10:                                               ; preds = %3
  %11 = fcmp olt float %1, 0.000000e+00
  %12 = fcmp ogt float %1, 0x47EFFFFFE0000000
  %13 = select i1 %12, float 0x47EFFFFFE0000000, float %1
  %14 = select i1 %11, float 0.000000e+00, float %13
  %15 = getelementptr i8, ptr %6, i64 -228
  store float %14, ptr %15, align 4, !tbaa !126
  %16 = fcmp olt float %2, 0.000000e+00
  %17 = fcmp ogt float %2, 0x47EFFFFFE0000000
  %18 = select i1 %17, float 0x47EFFFFFE0000000, float %2
  %19 = select i1 %16, float 0.000000e+00, float %18
  %20 = getelementptr i8, ptr %6, i64 -224
  store float %19, ptr %20, align 16, !tbaa !128
  br label %21

21:                                               ; preds = %3, %10
  ret void
}